target datalayout = "e-m:e-p270:32:32-p271:32:32-p272:64:64-i64:64-i128:128-f80:128-n8:16:32:64-S128"
target triple = "x86_64-unknown-linux-gnu"

%struct.preprocessor_params = type <{ %struct.pattern_inference_params.base, %struct.bit_blaster_params, i32, i32, i8, i8, i8, i8, i8, i8, i8, i8, i8, i8, i8, i8, i8, i8, i8, i8, i8, i8, i8, i8 }>
%struct.pattern_inference_params.base = type <{ i8, [3 x i8], i32, i8, i8, [2 x i8], i32, i8, [3 x i8], i32, i32, i8, [3 x i8], i32, i8, i8 }>
%struct.bit_blaster_params = type { i8, i8 }

; Function Attrs: mustprogress uwtable
define hidden noundef ptr @_ZN2qe15mk_arith_pluginERNS_16i_solver_contextEbR10smt_params(ptr noundef nonnull align 8 dereferenceable(48) %ctx, i1 noundef zeroext %produce_models, ptr noundef nonnull align 8 dereferenceable(800) %p) #4 {
entry:
  %retval = alloca ptr, align 8
  %ctx.addr = alloca ptr, align 8
  %produce_models.addr = alloca i8, align 1
  %p.addr = alloca ptr, align 8
  store ptr %ctx, ptr %ctx.addr, align 8
  %frombool = zext i1 %produce_models to i8
  store i8 %frombool, ptr %produce_models.addr, align 1
  store ptr %p, ptr %p.addr, align 8
  %0 = load ptr, ptr %p.addr, align 8
  %m_nlquant_elim = getelementptr inbounds %struct.preprocessor_params, ptr %0, i32 0, i32 21
  %1 = load i8, ptr %m_nlquant_elim, align 1
  %tobool = trunc i8 %1 to i1
  br i1 %tobool, label %if.then, label %if.else

if.then:                                          ; preds = %entry
  %call = call noalias noundef ptr @_ZN6memory8allocateEm(i64 noundef 880)
  %2 = load ptr, ptr %ctx.addr, align 8
  %3 = load ptr, ptr %ctx.addr, align 8
  %vtable = load ptr, ptr %3, align 8
  %vfn = getelementptr inbounds ptr, ptr %vtable, i64 2
  %4 = load ptr, ptr %vfn, align 8
  %call1 = call noundef nonnull align 8 dereferenceable(976) ptr %4(ptr noundef nonnull align 8 dereferenceable(48) %3)
  %5 = load i8, ptr %produce_models.addr, align 1
  %tobool2 = trunc i8 %5 to i1
  call void @_ZN2qe14nlarith_pluginC2ERNS_16i_solver_contextER11ast_managerb(ptr noundef nonnull align 8 dereferenceable(873) %call, ptr noundef nonnull align 8 dereferenceable(48) %2, ptr noundef nonnull align 8 dereferenceable(976) %call1, i1 noundef zeroext %tobool2)
  store ptr %call, ptr %retval, align 8
  br label %return

if.else:                                          ; preds = %entry
  %call3 = call noalias noundef ptr @_ZN6memory8allocateEm(i64 noundef 712)
  %6 = load ptr, ptr %ctx.addr, align 8
  %7 = load ptr, ptr %ctx.addr, align 8
  %vtable4 = load ptr, ptr %7, align 8
  %vfn5 = getelementptr inbounds ptr, ptr %vtable4, i64 2
  %8 = load ptr, ptr %vfn5, align 8
  %call6 = call noundef nonnull align 8 dereferenceable(976) ptr %8(ptr noundef nonnull align 8 dereferenceable(48) %7)
  %9 = load ptr, ptr %p.addr, align 8
  call void @_ZN2qe12arith_pluginC2ERNS_16i_solver_contextER11ast_managerR10smt_params(ptr noundef nonnull align 8 dereferenceable(712) %call3, ptr noundef nonnull align 8 dereferenceable(48) %6, ptr noundef nonnull align 8 dereferenceable(976) %call6, ptr noundef nonnull align 8 dereferenceable(800) %9)
  store ptr %call3, ptr %retval, align 8
  br label %return

return:                                           ; preds = %if.else, %if.then
  %10 = load ptr, ptr %retval, align 8
  ret ptr %10
}