; Function Attrs: mustprogress uwtable
define hidden noundef ptr @_ZN2qe15mk_arith_pluginERNS_16i_solver_contextEbR10smt_params(ptr noundef nonnull align 8 dereferenceable(48) %ctx, i1 noundef zeroext %produce_models, ptr noundef nonnull align 8 dereferenceable(800) %p) local_unnamed_addr #3 {
entry:
  %m_nlquant_elim = getelementptr inbounds i8, ptr %p, i64 65
  %0 = load i8, ptr %m_nlquant_elim, align 1
  %1 = and i8 %0, 1
  %tobool.not = icmp eq i8 %1, 0
  br i1 %tobool.not, label %if.else, label %if.then

if.then:                                          ; preds = %entry
  %call = tail call noalias noundef ptr @_ZN6memory8allocateEm(i64 noundef 880)
  %vtable = load ptr, ptr %ctx, align 8
  %vfn = getelementptr inbounds i8, ptr %vtable, i64 16
  %2 = load ptr, ptr %vfn, align 8
  %call1 = tail call noundef nonnull align 8 dereferenceable(976) ptr %2(ptr noundef nonnull align 8 dereferenceable(48) %ctx)
  tail call void @_ZN2qe14nlarith_pluginC2ERNS_16i_solver_contextER11ast_managerb(ptr noundef nonnull align 8 dereferenceable(873) %call, ptr noundef nonnull align 8 dereferenceable(48) %ctx, ptr noundef nonnull align 8 dereferenceable(976) %call1, i1 noundef zeroext %produce_models)
  br label %return

if.else:                                          ; preds = %entry
  %call3 = tail call noalias noundef ptr @_ZN6memory8allocateEm(i64 noundef 712)
  %vtable4 = load ptr, ptr %ctx, align 8
  %vfn5 = getelementptr inbounds i8, ptr %vtable4, i64 16
  %3 = load ptr, ptr %vfn5, align 8
  %call6 = tail call noundef nonnull align 8 dereferenceable(976) ptr %3(ptr noundef nonnull align 8 dereferenceable(48) %ctx)
  tail call void @_ZN2qe12arith_pluginC2ERNS_16i_solver_contextER11ast_managerR10smt_params(ptr noundef nonnull align 8 dereferenceable(712) %call3, ptr noundef nonnull align 8 dereferenceable(48) %ctx, ptr noundef nonnull align 8 dereferenceable(976) %call6, ptr noundef nonnull align 8 dereferenceable(800) %p)
  br label %return

return:                                           ; preds = %if.else, %if.then
  %retval.0 = phi ptr [ %call, %if.then ], [ %call3, %if.else ]
  ret ptr %retval.0
}